Certificate:
    Data:
        Version: 3 (0x2)
        Serial Number:
            c7:f3:d5:c6:8e:bb:a6:6a
    Signature Algorithm: sha256WithRSAEncryption
        Issuer: C=CN, ST=jiangsu, O=delphi, OU=stc, CN=liupp/emailAddress=melody1573@sina.com
        Validity
            Not Before: Dec  5 10:08:23 2016 GMT
            Not After : Dec  5 10:08:23 2019 GMT
        Subject: C=CN, ST=jiangsu, O=delphi, OU=stc, CN=liupp/emailAddress=melody1573@sina.com
        Subject Public Key Info:
            Public Key Algorithm: rsaEncryption
                Public-Key: (2048 bit)
                Modulus:
                    00:c4:0f:bd:7c:7b:a3:3f:03:37:0d:ed:12:d8:9c:
                    97:ee:27:50:eb:43:6b:63:66:46:63:ee:ba:e4:2b:
                    73:8a:22:ce:06:e4:b4:41:62:95:56:ed:e7:41:70:
                    ab:f4:6c:6f:a9:ec:d9:51:03:f2:1b:1e:41:44:ac:
                    d3:3e:3e:da:fb:a6:77:f9:a4:4d:ce:df:c1:2e:d2:
                    4a:95:a2:03:da:11:01:3c:a5:dc:d7:5e:0a:b8:b0:
                    72:96:8c:b0:a5:50:f8:2a:75:42:92:18:77:e6:44:
                    4a:55:0c:b8:b3:fa:9e:f5:fb:d7:d8:83:e1:27:15:
                    84:d0:e7:35:49:a3:4c:08:51:83:cf:fa:86:d1:09:
                    4b:18:80:74:4e:ca:39:4f:2a:9d:32:95:aa:0f:27:
                    0b:3e:72:c1:83:79:63:02:76:f0:d8:b4:85:9c:68:
                    b7:43:f7:a2:99:0c:10:05:cb:c9:f2:3a:fe:f1:7b:
                    6c:57:f0:05:14:fb:ec:26:3f:b2:9e:95:37:d8:b6:
                    b3:08:58:b1:55:0f:63:25:46:d3:4a:0d:c8:2b:ae:
                    76:81:3c:18:e9:b8:a7:39:95:62:a9:14:64:59:97:
                    b6:f8:63:cc:fa:39:cf:82:30:6c:38:53:f1:40:41:
                    14:88:f6:a8:1e:27:9f:15:c2:6a:b5:03:4f:65:32:
                    bc:39
                Exponent: 65537 (0x10001)
        X509v3 extensions:
            X509v3 Subject Key Identifier: 
                2C:5E:D0:DF:29:BC:A1:BA:15:33:9F:32:F7:DF:F3:EC:00:AD:1B:90
            X509v3 Authority Key Identifier: 
                keyid:2C:5E:D0:DF:29:BC:A1:BA:15:33:9F:32:F7:DF:F3:EC:00:AD:1B:90

            X509v3 Basic Constraints: critical
                CA:TRUE
    Signature Algorithm: sha256WithRSAEncryption
         87:b7:d6:58:6d:57:13:b5:5c:63:69:cc:92:69:87:ab:97:ab:
         4c:21:7e:46:9c:28:5e:48:1b:3a:65:1f:28:a9:29:63:77:d8:
         c4:93:94:23:bc:0e:cb:75:d2:97:5d:1e:70:e2:23:b8:05:df:
         81:59:b8:97:cd:3c:e1:27:80:72:08:a9:65:19:2f:aa:96:33:
         06:a1:5f:6a:85:1b:e8:0d:e9:27:10:36:e7:27:7c:fd:e1:7b:
         2f:ef:b9:3b:41:ab:ba:1e:36:b7:b7:07:4b:47:98:1f:43:b5:
         e5:34:7a:45:9a:12:1a:bb:39:bf:d4:a7:f0:03:0e:7e:30:87:
         51:ce:e8:a4:66:8f:8f:d3:a1:30:e8:b1:1b:b6:70:c3:f4:57:
         06:36:c0:6c:82:29:14:2b:ab:a6:96:6f:32:59:77:3f:05:d9:
         29:3f:75:65:07:60:78:c3:af:25:87:7e:39:ca:5b:3e:38:1b:
         c8:14:71:f3:4d:26:f3:65:8b:08:52:4a:c7:f7:51:d1:d2:c7:
         d0:35:58:78:5d:2b:f2:ac:c8:e4:3a:9b:70:f5:ab:ce:d0:fa:
         ec:11:b6:67:30:b2:65:cf:97:b7:9e:65:6a:da:01:53:d9:a8:
         6a:66:20:09:45:7b:73:e3:19:63:19:08:fe:30:43:2b:b2:54:
         3a:f1:14:59
-----BEGIN CERTIFICATE-----
MIIDujCCAqKgAwIBAgIJAMfz1caOu6ZqMA0GCSqGSIb3DQEBCwUAMHIxCzAJBgNV
BAYTAkNOMRAwDgYDVQQIDAdqaWFuZ3N1MQ8wDQYDVQQKDAZkZWxwaGkxDDAKBgNV
BAsMA3N0YzEOMAwGA1UEAwwFbGl1cHAxIjAgBgkqhkiG9w0BCQEWE21lbG9keTE1
NzNAc2luYS5jb20wHhcNMTYxMjA1MTAwODIzWhcNMTkxMjA1MTAwODIzWjByMQsw
CQYDVQQGEwJDTjEQMA4GA1UECAwHamlhbmdzdTEPMA0GA1UECgwGZGVscGhpMQww
CgYDVQQLDANzdGMxDjAMBgNVBAMMBWxpdXBwMSIwIAYJKoZIhvcNAQkBFhNtZWxv
ZHkxNTczQHNpbmEuY29tMIIBIjANBgkqhkiG9w0BAQEFAAOCAQ8AMIIBCgKCAQEA
xA+9fHujPwM3De0S2JyX7idQ60NrY2ZGY+665CtziiLOBuS0QWKVVu3nQXCr9Gxv
qezZUQPyGx5BRKzTPj7a+6Z3+aRNzt/BLtJKlaID2hEBPKXc114KuLByloywpVD4
KnVCkhh35kRKVQy4s/qe9fvX2IPhJxWE0Oc1SaNMCFGDz/qG0QlLGIB0Tso5Tyqd
MpWqDycLPnLBg3ljAnbw2LSFnGi3Q/eimQwQBcvJ8jr+8XtsV/AFFPvsJj+ynpU3
2LazCFixVQ9jJUbTSg3IK652gTwY6binOZViqRRkWZe2+GPM+jnPgjBsOFPxQEEU
iPaoHiefFcJqtQNPZTK8OQIDAQABo1MwUTAdBgNVHQ4EFgQULF7Q3ym8oboVM58y
99/z7ACtG5AwHwYDVR0jBBgwFoAULF7Q3ym8oboVM58y99/z7ACtG5AwDwYDVR0T
AQH/BAUwAwEB/zANBgkqhkiG9w0BAQsFAAOCAQEAh7fWWG1XE7VcY2nMkmmHq5er
TCF+RpwoXkgbOmUfKKkpY3fYxJOUI7wOy3XSl10ecOIjuAXfgVm4l8084SeAcgip
ZRkvqpYzBqFfaoUb6A3pJxA25yd8/eF7L++5O0Gruh42t7cHS0eYH0O15TR6RZoS
Grs5v9Sn8AMOfjCHUc7opGaPj9OhMOixG7Zww/RXBjbAbIIpFCurppZvMll3PwXZ
KT91ZQdgeMOvJYd+OcpbPjgbyBRx800m82WLCFJKx/dR0dLH0DVYeF0r8qzI5Dqb
cPWrztD67BG2ZzCyZc+Xt55latoBU9moamYgCUV7c+MZYxkI/jBDK7JUOvEUWQ==
-----END CERTIFICATE-----

